; Function Attrs: nounwind uwtable
define internal i32 @SpoolssEnumPrinterDrivers_q(ptr noundef %0, i32 noundef %1, ptr noundef %2, ptr noundef %3, ptr noundef %4, ptr noundef %5) #0 {
  %7 = alloca i32, align 4
  %8 = getelementptr inbounds nuw i8, ptr %4, i64 72
  %9 = load ptr, ptr %8, align 8
  %10 = load i32, ptr @hf_servername, align 4
  %11 = tail call i32 @dissect_ndr_str_pointer_item(ptr noundef %0, i32 noundef %1, ptr noundef %2, ptr noundef %3, ptr noundef %4, ptr noundef %5, i32 noundef 2, ptr noundef nonnull @.str.387, i32 noundef %10, i32 noundef 0) #5
  %12 = load i32, ptr @hf_environment, align 4
  %13 = tail call i32 @dissect_ndr_str_pointer_item(ptr noundef %0, i32 noundef %11, ptr noundef %2, ptr noundef %3, ptr noundef %4, ptr noundef %5, i32 noundef 2, ptr noundef nonnull @.str.1217, i32 noundef %12, i32 noundef 0) #5
  %14 = load i32, ptr @hf_level, align 4
  %15 = call i32 @dissect_ndr_uint32(ptr noundef %0, i32 noundef %13, ptr noundef %2, ptr noundef %3, ptr noundef %4, ptr noundef %5, i32 noundef %14, ptr noundef nonnull %7) #5
  %16 = getelementptr inbounds nuw i8, ptr %2, i64 80
  %17 = load ptr, ptr %16, align 8
  %18 = getelementptr inbounds nuw i8, ptr %17, i64 50
  %19 = load i16, ptr %18, align 2
  %20 = and i16 %19, 8
  %.not = icmp eq i16 %20, 0
  %.pre = load i32, ptr %7, align 4
  br i1 %.not, label %21, label %25

21:                                               ; preds = %6
  %22 = sext i32 %.pre to i64
  %23 = inttoptr i64 %22 to ptr
  %24 = getelementptr inbounds nuw i8, ptr %9, i64 72
  store ptr %23, ptr %24, align 8
  br label %25

25:                                               ; preds = %21, %6
  %26 = getelementptr inbounds nuw i8, ptr %2, i64 8
  %27 = load ptr, ptr %26, align 8
  call void (ptr, i32, ptr, ...) @col_append_fstr(ptr noundef %27, i32 noundef 25, ptr noundef nonnull @.str.1206, i32 noundef %.pre) #5
  %28 = getelementptr inbounds nuw i8, ptr %4, i64 88
  store ptr null, ptr %28, align 8
  %29 = call i32 @dissect_ndr_pointer(ptr noundef %0, i32 noundef %15, ptr noundef nonnull %2, ptr noundef %3, ptr noundef nonnull %4, ptr noundef %5, ptr noundef nonnull @dissect_spoolss_buffer_data, i32 noundef 2, ptr noundef nonnull @.str.435, i32 noundef -1) #5
  %30 = load i32, ptr @hf_offered, align 4
  %31 = call i32 @dissect_ndr_uint32(ptr noundef %0, i32 noundef %29, ptr noundef nonnull %2, ptr noundef %3, ptr noundef nonnull %4, ptr noundef %5, i32 noundef %30, ptr noundef null) #5
  ret i32 %31
}